GAS LISTING /tmp/ccoHXD5q.s 			page 1


   1               		.file	"main.c"
   2               	__SP_H__ = 0x3e
   3               	__SP_L__ = 0x3d
   4               	__SREG__ = 0x3f
   5               	__tmp_reg__ = 0
   6               	__zero_reg__ = 1
   7               		.stabs	"/home/j/projects/hkir/fw/prj/hkir/",100,0,2,.Ltext0
   8               		.stabs	"main.c",100,0,2,.Ltext0
   9               		.text
  10               	.Ltext0:
  11               		.stabs	"gcc2_compiled.",60,0,0,0
  12               		.stabs	"int:t(0,1)=r(0,1);-32768;32767;",128,0,0,0
  13               		.stabs	"char:t(0,2)=@s8;r(0,2);0;255;",128,0,0,0
  14               		.stabs	"long int:t(0,3)=@s32;r(0,3);020000000000;017777777777;",128,0,0,0
  15               		.stabs	"unsigned int:t(0,4)=r(0,4);0;0177777;",128,0,0,0
  16               		.stabs	"long unsigned int:t(0,5)=@s32;r(0,5);0;037777777777;",128,0,0,0
  17               		.stabs	"long long int:t(0,6)=@s64;r(0,6);01000000000000000000000;0777777777777777777777;",128,0,0,
  18               		.stabs	"long long unsigned int:t(0,7)=@s64;r(0,7);0;01777777777777777777777;",128,0,0,0
  19               		.stabs	"short int:t(0,8)=r(0,8);-32768;32767;",128,0,0,0
  20               		.stabs	"short unsigned int:t(0,9)=r(0,9);0;0177777;",128,0,0,0
  21               		.stabs	"signed char:t(0,10)=@s8;r(0,10);-128;127;",128,0,0,0
  22               		.stabs	"unsigned char:t(0,11)=@s8;r(0,11);0;255;",128,0,0,0
  23               		.stabs	"float:t(0,12)=r(0,1);4;0;",128,0,0,0
  24               		.stabs	"double:t(0,13)=r(0,1);4;0;",128,0,0,0
  25               		.stabs	"long double:t(0,14)=r(0,1);4;0;",128,0,0,0
  26               		.stabs	"short _Fract:t(0,15)=r(0,1);1;0;",128,0,0,0
  27               		.stabs	"_Fract:t(0,16)=r(0,1);2;0;",128,0,0,0
  28               		.stabs	"long _Fract:t(0,17)=r(0,1);4;0;",128,0,0,0
  29               		.stabs	"long long _Fract:t(0,18)=r(0,1);8;0;",128,0,0,0
  30               		.stabs	"unsigned short _Fract:t(0,19)=r(0,1);1;0;",128,0,0,0
  31               		.stabs	"unsigned _Fract:t(0,20)=r(0,1);2;0;",128,0,0,0
  32               		.stabs	"unsigned long _Fract:t(0,21)=r(0,1);4;0;",128,0,0,0
  33               		.stabs	"unsigned long long _Fract:t(0,22)=r(0,1);8;0;",128,0,0,0
  34               		.stabs	"_Sat short _Fract:t(0,23)=r(0,1);1;0;",128,0,0,0
  35               		.stabs	"_Sat _Fract:t(0,24)=r(0,1);2;0;",128,0,0,0
  36               		.stabs	"_Sat long _Fract:t(0,25)=r(0,1);4;0;",128,0,0,0
  37               		.stabs	"_Sat long long _Fract:t(0,26)=r(0,1);8;0;",128,0,0,0
  38               		.stabs	"_Sat unsigned short _Fract:t(0,27)=r(0,1);1;0;",128,0,0,0
  39               		.stabs	"_Sat unsigned _Fract:t(0,28)=r(0,1);2;0;",128,0,0,0
  40               		.stabs	"_Sat unsigned long _Fract:t(0,29)=r(0,1);4;0;",128,0,0,0
  41               		.stabs	"_Sat unsigned long long _Fract:t(0,30)=r(0,1);8;0;",128,0,0,0
  42               		.stabs	"short _Accum:t(0,31)=r(0,1);2;0;",128,0,0,0
  43               		.stabs	"_Accum:t(0,32)=r(0,1);4;0;",128,0,0,0
  44               		.stabs	"long _Accum:t(0,33)=r(0,1);8;0;",128,0,0,0
  45               		.stabs	"long long _Accum:t(0,34)=r(0,1);8;0;",128,0,0,0
  46               		.stabs	"unsigned short _Accum:t(0,35)=r(0,1);2;0;",128,0,0,0
  47               		.stabs	"unsigned _Accum:t(0,36)=r(0,1);4;0;",128,0,0,0
  48               		.stabs	"unsigned long _Accum:t(0,37)=r(0,1);8;0;",128,0,0,0
  49               		.stabs	"unsigned long long _Accum:t(0,38)=r(0,1);8;0;",128,0,0,0
  50               		.stabs	"_Sat short _Accum:t(0,39)=r(0,1);2;0;",128,0,0,0
  51               		.stabs	"_Sat _Accum:t(0,40)=r(0,1);4;0;",128,0,0,0
  52               		.stabs	"_Sat long _Accum:t(0,41)=r(0,1);8;0;",128,0,0,0
  53               		.stabs	"_Sat long long _Accum:t(0,42)=r(0,1);8;0;",128,0,0,0
  54               		.stabs	"_Sat unsigned short _Accum:t(0,43)=r(0,1);2;0;",128,0,0,0
  55               		.stabs	"_Sat unsigned _Accum:t(0,44)=r(0,1);4;0;",128,0,0,0
  56               		.stabs	"_Sat unsigned long _Accum:t(0,45)=r(0,1);8;0;",128,0,0,0
  57               		.stabs	"_Sat unsigned long long _Accum:t(0,46)=r(0,1);8;0;",128,0,0,0
GAS LISTING /tmp/ccoHXD5q.s 			page 2


  58               		.stabs	"void:t(0,47)=(0,47)",128,0,0,0
  59               		.stabs	"config.h",130,0,0,0
  60               		.stabs	"../../inc/config_top.h",130,0,0,0
  61               		.stabs	"/usr/avr/include/inttypes.h",130,0,0,0
  62               		.stabs	"/usr/lib/gcc/avr/4.8.2/include/stdint.h",130,0,0,0
  63               		.stabs	"/usr/avr/include/stdint.h",130,0,0,0
  64               		.stabs	"int8_t:t(5,1)=(0,10)",128,0,121,0
  65               		.stabs	"uint8_t:t(5,2)=(0,11)",128,0,122,0
  66               		.stabs	"int16_t:t(5,3)=(0,1)",128,0,123,0
  67               		.stabs	"uint16_t:t(5,4)=(0,4)",128,0,124,0
  68               		.stabs	"int32_t:t(5,5)=(0,3)",128,0,125,0
  69               		.stabs	"uint32_t:t(5,6)=(0,5)",128,0,126,0
  70               		.stabs	"int64_t:t(5,7)=(0,6)",128,0,128,0
  71               		.stabs	"uint64_t:t(5,8)=(0,7)",128,0,129,0
  72               		.stabs	"intptr_t:t(5,9)=(5,3)",128,0,142,0
  73               		.stabs	"uintptr_t:t(5,10)=(5,4)",128,0,147,0
  74               		.stabs	"int_least8_t:t(5,11)=(5,1)",128,0,159,0
  75               		.stabs	"uint_least8_t:t(5,12)=(5,2)",128,0,164,0
  76               		.stabs	"int_least16_t:t(5,13)=(5,3)",128,0,169,0
  77               		.stabs	"uint_least16_t:t(5,14)=(5,4)",128,0,174,0
  78               		.stabs	"int_least32_t:t(5,15)=(5,5)",128,0,179,0
  79               		.stabs	"uint_least32_t:t(5,16)=(5,6)",128,0,184,0
  80               		.stabs	"int_least64_t:t(5,17)=(5,7)",128,0,192,0
  81               		.stabs	"uint_least64_t:t(5,18)=(5,8)",128,0,199,0
  82               		.stabs	"int_fast8_t:t(5,19)=(5,1)",128,0,213,0
  83               		.stabs	"uint_fast8_t:t(5,20)=(5,2)",128,0,218,0
  84               		.stabs	"int_fast16_t:t(5,21)=(5,3)",128,0,223,0
  85               		.stabs	"uint_fast16_t:t(5,22)=(5,4)",128,0,228,0
  86               		.stabs	"int_fast32_t:t(5,23)=(5,5)",128,0,233,0
  87               		.stabs	"uint_fast32_t:t(5,24)=(5,6)",128,0,238,0
  88               		.stabs	"int_fast64_t:t(5,25)=(5,7)",128,0,246,0
  89               		.stabs	"uint_fast64_t:t(5,26)=(5,8)",128,0,253,0
  90               		.stabs	"intmax_t:t(5,27)=(5,7)",128,0,273,0
  91               		.stabs	"uintmax_t:t(5,28)=(5,8)",128,0,278,0
  92               		.stabn	162,0,0,0
  93               		.stabn	162,0,0,0
  94               		.stabs	"int_farptr_t:t(3,1)=(5,5)",128,0,77,0
  95               		.stabs	"uint_farptr_t:t(3,2)=(5,6)",128,0,81,0
  96               		.stabn	162,0,0,0
  97               		.stabs	"/usr/avr/include/avr/io.h",130,0,0,0
  98               		.stabs	"/usr/avr/include/avr/fuse.h",130,0,0,0
  99               		.stabs	"__fuse_t:t(7,1)=(7,2)=s3low:(0,11),0,8;high:(0,11),8,8;extended:(0,11),16,8;;",128,0,244,0
 100               		.stabn	162,0,0,0
 101               		.stabn	162,0,0,0
 102               		.stabs	"/usr/avr/include/avr/pgmspace.h",130,0,0,0
 103               		.stabs	"/usr/lib/gcc/avr/4.8.2/include/stddef.h",130,0,0,0
 104               		.stabs	"size_t:t(9,1)=(0,4)",128,0,212,0
 105               		.stabn	162,0,0,0
 106               		.stabn	162,0,0,0
 107               		.stabn	162,0,0,0
 108               		.stabn	162,0,0,0
 109               		.stabs	"ir_commands_e:T(0,48)=@s8;eVOL_UP:117,VOL_DN:100,VOL_MT:109,PWR_ON:111,PWR_OF:79,;",128,0,
 110               		.stabs	"ir_commands_t:t(0,49)=(5,2)",128,0,23,0
 111               		.section	.text.startup,"ax",@progbits
 112               		.stabs	"main:F(0,1)",36,0,26,main
 113               	.global	main
 114               		.type	main, @function
GAS LISTING /tmp/ccoHXD5q.s 			page 3


 115               	main:
 116               		.stabd	46,0,0
   1:main.c        **** /*
   2:main.c        ****  * HK IR Blaster
   3:main.c        ****  * jwc :: jwcxz.com
   4:main.c        ****  */
   5:main.c        **** 
   6:main.c        **** #include "config.h"
   7:main.c        **** #include "ir.h"
   8:main.c        **** #include "uart_rb.h"
   9:main.c        **** 
  10:main.c        **** static uint8_t vol_up[7] = { 0xD7, 0xDA, 0xD5, 0xED, 0xB5, 0xB6, 0x80 };
  11:main.c        **** static uint8_t vol_dn[7] = { 0xD7, 0xDA, 0xD5, 0xAE, 0xDE, 0xB6, 0x80 };
  12:main.c        **** static uint8_t vol_mt[7] = { 0xD7, 0xDA, 0xD5, 0xDA, 0xDB, 0x76, 0x80 };
  13:main.c        **** static uint8_t pwr_on[7] = { 0xD7, 0xDA, 0xD5, 0xFE, 0xD5, 0x56, 0x80 };
  14:main.c        **** static uint8_t pwr_of[7] = { 0xD7, 0xDA, 0xD5, 0xBF, 0x75, 0x56, 0x80 };
  15:main.c        **** 
  16:main.c        **** enum ir_commands_e {
  17:main.c        ****     VOL_UP = 'u',
  18:main.c        ****     VOL_DN = 'd',
  19:main.c        ****     VOL_MT = 'm',
  20:main.c        ****     PWR_ON = 'o',
  21:main.c        ****     PWR_OF = 'O'
  22:main.c        **** };
  23:main.c        **** typedef uint8_t ir_commands_t;
  24:main.c        **** 
  25:main.c        **** 
  26:main.c        **** int main(void) {
 117               		.stabn	68,0,26,.LM0-.LFBB1
 118               	.LM0:
 119               	.LFBB1:
 120               	/* prologue: function */
 121               	/* frame size = 0 */
 122               	/* stack size = 0 */
 123               	.L__stack_usage = 0
  27:main.c        ****     uint8_t cmd;
  28:main.c        **** 
  29:main.c        ****     ir_init();
 124               		.stabn	68,0,29,.LM1-.LFBB1
 125               	.LM1:
 126 0000 0E94 0000 		call ir_init
  30:main.c        ****     uart_rb_init();
 127               		.stabn	68,0,30,.LM2-.LFBB1
 128               	.LM2:
 129 0004 0E94 0000 		call uart_rb_init
  31:main.c        **** 
  32:main.c        ****     sei();
 130               		.stabn	68,0,32,.LM3-.LFBB1
 131               	.LM3:
 132               	/* #APP */
 133               	 ;  32 "main.c" 1
 134 0008 7894      		sei
 135               	 ;  0 "" 2
 136               	/* #NOAPP */
 137               	.L10:
  33:main.c        **** 
  34:main.c        ****     while (1) {
GAS LISTING /tmp/ccoHXD5q.s 			page 4


  35:main.c        ****         cmd = uart_rb_rx();
 138               		.stabn	68,0,35,.LM4-.LFBB1
 139               	.LM4:
 140 000a 0E94 0000 		call uart_rb_rx
  36:main.c        ****         switch (cmd) {
 141               		.stabn	68,0,36,.LM5-.LFBB1
 142               	.LM5:
 143 000e 8D36      		cpi r24,lo8(109)
 144 0010 01F0      		breq .L4
 145 0012 00F4      		brsh .L5
 146 0014 8F34      		cpi r24,lo8(79)
 147 0016 01F0      		breq .L6
 148 0018 8436      		cpi r24,lo8(100)
 149 001a 01F4      		brne .L10
  37:main.c        ****             case 'u':
  38:main.c        ****                 ir_send(vol_up, 7);
  39:main.c        ****                 break;
  40:main.c        ****             case VOL_DN:
  41:main.c        ****                 ir_send(vol_dn, 7);
 150               		.stabn	68,0,41,.LM6-.LFBB1
 151               	.LM6:
 152 001c 67E0      		ldi r22,lo8(7)
 153 001e 80E0      		ldi r24,lo8(vol_dn)
 154 0020 90E0      		ldi r25,hi8(vol_dn)
 155 0022 00C0      		rjmp .L12
 156               	.L5:
  36:main.c        ****         switch (cmd) {
 157               		.stabn	68,0,36,.LM7-.LFBB1
 158               	.LM7:
 159 0024 8F36      		cpi r24,lo8(111)
 160 0026 01F0      		breq .L8
 161 0028 8537      		cpi r24,lo8(117)
 162 002a 01F4      		brne .L10
  38:main.c        ****                 ir_send(vol_up, 7);
 163               		.stabn	68,0,38,.LM8-.LFBB1
 164               	.LM8:
 165 002c 67E0      		ldi r22,lo8(7)
 166 002e 80E0      		ldi r24,lo8(vol_up)
 167 0030 90E0      		ldi r25,hi8(vol_up)
 168 0032 00C0      		rjmp .L12
 169               	.L4:
  42:main.c        ****                 break;
  43:main.c        ****             case VOL_MT:
  44:main.c        ****                 ir_send(vol_mt, 7);
 170               		.stabn	68,0,44,.LM9-.LFBB1
 171               	.LM9:
 172 0034 67E0      		ldi r22,lo8(7)
 173 0036 80E0      		ldi r24,lo8(vol_mt)
 174 0038 90E0      		ldi r25,hi8(vol_mt)
 175 003a 00C0      		rjmp .L12
 176               	.L8:
  45:main.c        ****                 break;
  46:main.c        ****             case PWR_ON:
  47:main.c        ****                 ir_send(pwr_on, 7);
 177               		.stabn	68,0,47,.LM10-.LFBB1
 178               	.LM10:
 179 003c 67E0      		ldi r22,lo8(7)
GAS LISTING /tmp/ccoHXD5q.s 			page 5


 180 003e 80E0      		ldi r24,lo8(pwr_on)
 181 0040 90E0      		ldi r25,hi8(pwr_on)
 182 0042 00C0      		rjmp .L12
 183               	.L6:
  48:main.c        ****                 break;
  49:main.c        ****             case PWR_OF:
  50:main.c        ****                 ir_send(pwr_of, 7);
 184               		.stabn	68,0,50,.LM11-.LFBB1
 185               	.LM11:
 186 0044 67E0      		ldi r22,lo8(7)
 187 0046 80E0      		ldi r24,lo8(pwr_of)
 188 0048 90E0      		ldi r25,hi8(pwr_of)
 189               	.L12:
 190 004a 0E94 0000 		call ir_send
  51:main.c        ****                 break;
 191               		.stabn	68,0,51,.LM12-.LFBB1
 192               	.LM12:
 193 004e 00C0      		rjmp .L10
 194               		.size	main, .-main
 195               		.stabs	"cmd:r(5,2)",64,0,27,24
 196               		.stabn	192,0,0,.LFBB1-.LFBB1
 197               		.stabn	224,0,0,.Lscope1-.LFBB1
 198               	.Lscope1:
 199               		.stabs	"",36,0,0,.Lscope1-.LFBB1
 200               		.stabd	78,0,0
 201               		.data
 202               		.type	pwr_of, @object
 203               		.size	pwr_of, 7
 204               	pwr_of:
 205 0000 D7        		.byte	-41
 206 0001 DA        		.byte	-38
 207 0002 D5        		.byte	-43
 208 0003 BF        		.byte	-65
 209 0004 75        		.byte	117
 210 0005 56        		.byte	86
 211 0006 80        		.byte	-128
 212               		.type	pwr_on, @object
 213               		.size	pwr_on, 7
 214               	pwr_on:
 215 0007 D7        		.byte	-41
 216 0008 DA        		.byte	-38
 217 0009 D5        		.byte	-43
 218 000a FE        		.byte	-2
 219 000b D5        		.byte	-43
 220 000c 56        		.byte	86
 221 000d 80        		.byte	-128
 222               		.type	vol_mt, @object
 223               		.size	vol_mt, 7
 224               	vol_mt:
 225 000e D7        		.byte	-41
 226 000f DA        		.byte	-38
 227 0010 D5        		.byte	-43
 228 0011 DA        		.byte	-38
 229 0012 DB        		.byte	-37
 230 0013 76        		.byte	118
 231 0014 80        		.byte	-128
 232               		.type	vol_dn, @object
GAS LISTING /tmp/ccoHXD5q.s 			page 6


 233               		.size	vol_dn, 7
 234               	vol_dn:
 235 0015 D7        		.byte	-41
 236 0016 DA        		.byte	-38
 237 0017 D5        		.byte	-43
 238 0018 AE        		.byte	-82
 239 0019 DE        		.byte	-34
 240 001a B6        		.byte	-74
 241 001b 80        		.byte	-128
 242               		.type	vol_up, @object
 243               		.size	vol_up, 7
 244               	vol_up:
 245 001c D7        		.byte	-41
 246 001d DA        		.byte	-38
 247 001e D5        		.byte	-43
 248 001f ED        		.byte	-19
 249 0020 B5        		.byte	-75
 250 0021 B6        		.byte	-74
 251 0022 80        		.byte	-128
 252               		.stabs	"vol_up:S(0,50)=ar(0,51)=r(0,51);0;0177777;;0;6;(5,2)",38,0,10,vol_up
 253               		.stabs	"vol_dn:S(0,50)",38,0,11,vol_dn
 254               		.stabs	"vol_mt:S(0,50)",38,0,12,vol_mt
 255               		.stabs	"pwr_on:S(0,50)",38,0,13,pwr_on
 256               		.stabs	"pwr_of:S(0,50)",38,0,14,pwr_of
 257               		.text
 258               		.stabs	"",100,0,0,.Letext0
 259               	.Letext0:
 260               		.ident	"GCC: (GNU) 4.8.2"
 261               	.global __do_copy_data
GAS LISTING /tmp/ccoHXD5q.s 			page 7


DEFINED SYMBOLS
                            *ABS*:0000000000000000 main.c
     /tmp/ccoHXD5q.s:2      *ABS*:000000000000003e __SP_H__
     /tmp/ccoHXD5q.s:3      *ABS*:000000000000003d __SP_L__
     /tmp/ccoHXD5q.s:4      *ABS*:000000000000003f __SREG__
     /tmp/ccoHXD5q.s:5      *ABS*:0000000000000000 __tmp_reg__
     /tmp/ccoHXD5q.s:6      *ABS*:0000000000000001 __zero_reg__
     /tmp/ccoHXD5q.s:115    .text.startup:0000000000000000 main
     /tmp/ccoHXD5q.s:234    .data:0000000000000015 vol_dn
     /tmp/ccoHXD5q.s:244    .data:000000000000001c vol_up
     /tmp/ccoHXD5q.s:224    .data:000000000000000e vol_mt
     /tmp/ccoHXD5q.s:214    .data:0000000000000007 pwr_on
     /tmp/ccoHXD5q.s:204    .data:0000000000000000 pwr_of

UNDEFINED SYMBOLS
ir_init
uart_rb_init
uart_rb_rx
ir_send
__do_copy_data
