GAS LISTING /tmp/ccmqQU8W.s 			page 1


   1               		.file	"nrfspi_usart.c"
   2               	__SP_H__ = 0x3e
   3               	__SP_L__ = 0x3d
   4               	__SREG__ = 0x3f
   5               	__tmp_reg__ = 0
   6               	__zero_reg__ = 1
   7               		.stabs	"/home/j/projects/acris/avr/prj/test-nrf/",100,0,2,.Ltext0
   8               		.stabs	"../../lib/nrfspi_usart.c",100,0,2,.Ltext0
   9               		.text
  10               	.Ltext0:
  11               		.stabs	"gcc2_compiled.",60,0,0,0
  12               		.stabs	"int:t(0,1)=r(0,1);-32768;32767;",128,0,0,0
  13               		.stabs	"char:t(0,2)=@s8;r(0,2);0;255;",128,0,0,0
  14               		.stabs	"long int:t(0,3)=@s32;r(0,3);020000000000;017777777777;",128,0,0,0
  15               		.stabs	"unsigned int:t(0,4)=r(0,4);0;0177777;",128,0,0,0
  16               		.stabs	"long unsigned int:t(0,5)=@s32;r(0,5);0;037777777777;",128,0,0,0
  17               		.stabs	"long long int:t(0,6)=@s64;r(0,6);01000000000000000000000;0777777777777777777777;",128,0,0,
  18               		.stabs	"long long unsigned int:t(0,7)=@s64;r(0,7);0;01777777777777777777777;",128,0,0,0
  19               		.stabs	"short int:t(0,8)=r(0,8);-32768;32767;",128,0,0,0
  20               		.stabs	"short unsigned int:t(0,9)=r(0,9);0;0177777;",128,0,0,0
  21               		.stabs	"signed char:t(0,10)=@s8;r(0,10);-128;127;",128,0,0,0
  22               		.stabs	"unsigned char:t(0,11)=@s8;r(0,11);0;255;",128,0,0,0
  23               		.stabs	"float:t(0,12)=r(0,1);4;0;",128,0,0,0
  24               		.stabs	"double:t(0,13)=r(0,1);4;0;",128,0,0,0
  25               		.stabs	"long double:t(0,14)=r(0,1);4;0;",128,0,0,0
  26               		.stabs	"short _Fract:t(0,15)=r(0,1);1;0;",128,0,0,0
  27               		.stabs	"_Fract:t(0,16)=r(0,1);2;0;",128,0,0,0
  28               		.stabs	"long _Fract:t(0,17)=r(0,1);4;0;",128,0,0,0
  29               		.stabs	"long long _Fract:t(0,18)=r(0,1);8;0;",128,0,0,0
  30               		.stabs	"unsigned short _Fract:t(0,19)=r(0,1);1;0;",128,0,0,0
  31               		.stabs	"unsigned _Fract:t(0,20)=r(0,1);2;0;",128,0,0,0
  32               		.stabs	"unsigned long _Fract:t(0,21)=r(0,1);4;0;",128,0,0,0
  33               		.stabs	"unsigned long long _Fract:t(0,22)=r(0,1);8;0;",128,0,0,0
  34               		.stabs	"_Sat short _Fract:t(0,23)=r(0,1);1;0;",128,0,0,0
  35               		.stabs	"_Sat _Fract:t(0,24)=r(0,1);2;0;",128,0,0,0
  36               		.stabs	"_Sat long _Fract:t(0,25)=r(0,1);4;0;",128,0,0,0
  37               		.stabs	"_Sat long long _Fract:t(0,26)=r(0,1);8;0;",128,0,0,0
  38               		.stabs	"_Sat unsigned short _Fract:t(0,27)=r(0,1);1;0;",128,0,0,0
  39               		.stabs	"_Sat unsigned _Fract:t(0,28)=r(0,1);2;0;",128,0,0,0
  40               		.stabs	"_Sat unsigned long _Fract:t(0,29)=r(0,1);4;0;",128,0,0,0
  41               		.stabs	"_Sat unsigned long long _Fract:t(0,30)=r(0,1);8;0;",128,0,0,0
  42               		.stabs	"short _Accum:t(0,31)=r(0,1);2;0;",128,0,0,0
  43               		.stabs	"_Accum:t(0,32)=r(0,1);4;0;",128,0,0,0
  44               		.stabs	"long _Accum:t(0,33)=r(0,1);8;0;",128,0,0,0
  45               		.stabs	"long long _Accum:t(0,34)=r(0,1);8;0;",128,0,0,0
  46               		.stabs	"unsigned short _Accum:t(0,35)=r(0,1);2;0;",128,0,0,0
  47               		.stabs	"unsigned _Accum:t(0,36)=r(0,1);4;0;",128,0,0,0
  48               		.stabs	"unsigned long _Accum:t(0,37)=r(0,1);8;0;",128,0,0,0
  49               		.stabs	"unsigned long long _Accum:t(0,38)=r(0,1);8;0;",128,0,0,0
  50               		.stabs	"_Sat short _Accum:t(0,39)=r(0,1);2;0;",128,0,0,0
  51               		.stabs	"_Sat _Accum:t(0,40)=r(0,1);4;0;",128,0,0,0
  52               		.stabs	"_Sat long _Accum:t(0,41)=r(0,1);8;0;",128,0,0,0
  53               		.stabs	"_Sat long long _Accum:t(0,42)=r(0,1);8;0;",128,0,0,0
  54               		.stabs	"_Sat unsigned short _Accum:t(0,43)=r(0,1);2;0;",128,0,0,0
  55               		.stabs	"_Sat unsigned _Accum:t(0,44)=r(0,1);4;0;",128,0,0,0
  56               		.stabs	"_Sat unsigned long _Accum:t(0,45)=r(0,1);8;0;",128,0,0,0
  57               		.stabs	"_Sat unsigned long long _Accum:t(0,46)=r(0,1);8;0;",128,0,0,0
GAS LISTING /tmp/ccmqQU8W.s 			page 2


  58               		.stabs	"void:t(0,47)=(0,47)",128,0,0,0
  59               		.stabs	"./config.h",130,0,0,0
  60               		.stabs	"../../inc/config_top.h",130,0,0,0
  61               		.stabs	"/usr/avr/include/inttypes.h",130,0,0,0
  62               		.stabs	"/usr/lib/gcc/avr/4.8.2/include/stdint.h",130,0,0,0
  63               		.stabs	"/usr/avr/include/stdint.h",130,0,0,0
  64               		.stabs	"int8_t:t(5,1)=(0,10)",128,0,121,0
  65               		.stabs	"uint8_t:t(5,2)=(0,11)",128,0,122,0
  66               		.stabs	"int16_t:t(5,3)=(0,1)",128,0,123,0
  67               		.stabs	"uint16_t:t(5,4)=(0,4)",128,0,124,0
  68               		.stabs	"int32_t:t(5,5)=(0,3)",128,0,125,0
  69               		.stabs	"uint32_t:t(5,6)=(0,5)",128,0,126,0
  70               		.stabs	"int64_t:t(5,7)=(0,6)",128,0,128,0
  71               		.stabs	"uint64_t:t(5,8)=(0,7)",128,0,129,0
  72               		.stabs	"intptr_t:t(5,9)=(5,3)",128,0,142,0
  73               		.stabs	"uintptr_t:t(5,10)=(5,4)",128,0,147,0
  74               		.stabs	"int_least8_t:t(5,11)=(5,1)",128,0,159,0
  75               		.stabs	"uint_least8_t:t(5,12)=(5,2)",128,0,164,0
  76               		.stabs	"int_least16_t:t(5,13)=(5,3)",128,0,169,0
  77               		.stabs	"uint_least16_t:t(5,14)=(5,4)",128,0,174,0
  78               		.stabs	"int_least32_t:t(5,15)=(5,5)",128,0,179,0
  79               		.stabs	"uint_least32_t:t(5,16)=(5,6)",128,0,184,0
  80               		.stabs	"int_least64_t:t(5,17)=(5,7)",128,0,192,0
  81               		.stabs	"uint_least64_t:t(5,18)=(5,8)",128,0,199,0
  82               		.stabs	"int_fast8_t:t(5,19)=(5,1)",128,0,213,0
  83               		.stabs	"uint_fast8_t:t(5,20)=(5,2)",128,0,218,0
  84               		.stabs	"int_fast16_t:t(5,21)=(5,3)",128,0,223,0
  85               		.stabs	"uint_fast16_t:t(5,22)=(5,4)",128,0,228,0
  86               		.stabs	"int_fast32_t:t(5,23)=(5,5)",128,0,233,0
  87               		.stabs	"uint_fast32_t:t(5,24)=(5,6)",128,0,238,0
  88               		.stabs	"int_fast64_t:t(5,25)=(5,7)",128,0,246,0
  89               		.stabs	"uint_fast64_t:t(5,26)=(5,8)",128,0,253,0
  90               		.stabs	"intmax_t:t(5,27)=(5,7)",128,0,273,0
  91               		.stabs	"uintmax_t:t(5,28)=(5,8)",128,0,278,0
  92               		.stabn	162,0,0,0
  93               		.stabn	162,0,0,0
  94               		.stabs	"int_farptr_t:t(3,1)=(5,5)",128,0,77,0
  95               		.stabs	"uint_farptr_t:t(3,2)=(5,6)",128,0,81,0
  96               		.stabn	162,0,0,0
  97               		.stabs	"/usr/avr/include/avr/io.h",130,0,0,0
  98               		.stabs	"/usr/avr/include/avr/fuse.h",130,0,0,0
  99               		.stabs	"__fuse_t:t(7,1)=(7,2)=s3low:(0,11),0,8;high:(0,11),8,8;extended:(0,11),16,8;;",128,0,244,0
 100               		.stabn	162,0,0,0
 101               		.stabn	162,0,0,0
 102               		.stabs	"/usr/avr/include/avr/pgmspace.h",130,0,0,0
 103               		.stabs	"/usr/lib/gcc/avr/4.8.2/include/stddef.h",130,0,0,0
 104               		.stabs	"size_t:t(9,1)=(0,4)",128,0,212,0
 105               		.stabn	162,0,0,0
 106               		.stabn	162,0,0,0
 107               		.stabn	162,0,0,0
 108               		.stabn	162,0,0,0
 109               		.stabs	"nrfspi_init:F(0,47)",36,0,10,nrfspi_init
 110               	.global	nrfspi_init
 111               		.type	nrfspi_init, @function
 112               	nrfspi_init:
 113               		.stabd	46,0,0
   1:../../lib/nrfspi_usart.c **** /*
GAS LISTING /tmp/ccmqQU8W.s 			page 3


   2:../../lib/nrfspi_usart.c ****  * SPI Mode USART i/f for NRF24L01+
   3:../../lib/nrfspi_usart.c ****  * jwc :: jwcxz.com
   4:../../lib/nrfspi_usart.c ****  */
   5:../../lib/nrfspi_usart.c **** 
   6:../../lib/nrfspi_usart.c **** #include "config.h"
   7:../../lib/nrfspi_usart.c **** #include "nrfspi.h"
   8:../../lib/nrfspi_usart.c **** 
   9:../../lib/nrfspi_usart.c **** 
  10:../../lib/nrfspi_usart.c **** void nrfspi_init(void) {
 114               		.stabn	68,0,10,.LM0-.LFBB1
 115               	.LM0:
 116               	.LFBB1:
 117               	/* prologue: function */
 118               	/* frame size = 0 */
 119               	/* stack size = 0 */
 120               	.L__stack_usage = 0
  11:../../lib/nrfspi_usart.c ****     // NRF24L01+ accepts a maximum baud rate of 10mbps and is mode '00' with MSB first
  12:../../lib/nrfspi_usart.c **** 
  13:../../lib/nrfspi_usart.c ****     // set up the pins
  14:../../lib/nrfspi_usart.c ****     _ON(NRF_CSN_PRT, NRF_CSN_PIN);
 121               		.stabn	68,0,14,.LM1-.LFBB1
 122               	.LM1:
 123 0000 449A      		sbi 0x8,4
  15:../../lib/nrfspi_usart.c ****     _ON(NRF_CSN_DDR, NRF_CSN_PIN);
 124               		.stabn	68,0,15,.LM2-.LFBB1
 125               	.LM2:
 126 0002 3C9A      		sbi 0x7,4
  16:../../lib/nrfspi_usart.c ****     _ON(NRF_SCLK_DDR, NRF_SCLK_PIN);
 127               		.stabn	68,0,16,.LM3-.LFBB1
 128               	.LM3:
 129 0004 549A      		sbi 0xa,4
  17:../../lib/nrfspi_usart.c ****     _ON(NRF_MOSI_DDR, NRF_MOSI_PIN);
 130               		.stabn	68,0,17,.LM4-.LFBB1
 131               	.LM4:
 132 0006 519A      		sbi 0xa,1
  18:../../lib/nrfspi_usart.c ****     _OFF(NRF_MISO_DDR, NRF_MISO_PIN);
 133               		.stabn	68,0,18,.LM5-.LFBB1
 134               	.LM5:
 135 0008 5098      		cbi 0xa,0
  19:../../lib/nrfspi_usart.c **** 
  20:../../lib/nrfspi_usart.c ****     // enable transmit and receive interrupts
  21:../../lib/nrfspi_usart.c ****     // TODO: enable interrupt mode? [if it turns out that reading a packet
  22:../../lib/nrfspi_usart.c ****     //       wastes too much time]
  23:../../lib/nrfspi_usart.c ****     //UCSR0B = ( _BV(RXCIE0) | _BV(TXCIE0) );
  24:../../lib/nrfspi_usart.c **** 
  25:../../lib/nrfspi_usart.c ****     // enable master spi mode, set MSB-first, mode '00'
  26:../../lib/nrfspi_usart.c ****     UCSR0C = ( _BV(UMSEL01) | _BV(UMSEL00) );
 136               		.stabn	68,0,26,.LM6-.LFBB1
 137               	.LM6:
 138 000a 80EC      		ldi r24,lo8(-64)
 139 000c 8093 C200 		sts 194,r24
 140 0010 0895      		ret
 141               		.size	nrfspi_init, .-nrfspi_init
 142               	.Lscope1:
 143               		.stabs	"",36,0,0,.Lscope1-.LFBB1
 144               		.stabd	78,0,0
 145               		.stabs	"nrfspi_enable:F(0,47)",36,0,30,nrfspi_enable
GAS LISTING /tmp/ccmqQU8W.s 			page 4


 146               	.global	nrfspi_enable
 147               		.type	nrfspi_enable, @function
 148               	nrfspi_enable:
 149               		.stabd	46,0,0
  27:../../lib/nrfspi_usart.c **** }
  28:../../lib/nrfspi_usart.c **** 
  29:../../lib/nrfspi_usart.c **** 
  30:../../lib/nrfspi_usart.c **** void nrfspi_enable(void) {
 150               		.stabn	68,0,30,.LM7-.LFBB2
 151               	.LM7:
 152               	.LFBB2:
 153               	/* prologue: function */
 154               	/* frame size = 0 */
 155               	/* stack size = 0 */
 156               	.L__stack_usage = 0
  31:../../lib/nrfspi_usart.c ****     // baud rate must be set after transmitter is enabled, but before transmitting
  32:../../lib/nrfspi_usart.c ****     UBRR0 = 0;
 157               		.stabn	68,0,32,.LM8-.LFBB2
 158               	.LM8:
 159 0012 E4EC      		ldi r30,lo8(-60)
 160 0014 F0E0      		ldi r31,0
 161 0016 1182      		std Z+1,__zero_reg__
 162 0018 1082      		st Z,__zero_reg__
  33:../../lib/nrfspi_usart.c **** 
  34:../../lib/nrfspi_usart.c ****     UCSR0B |= ( _BV(RXEN0) | _BV(TXEN0) );
 163               		.stabn	68,0,34,.LM9-.LFBB2
 164               	.LM9:
 165 001a A1EC      		ldi r26,lo8(-63)
 166 001c B0E0      		ldi r27,0
 167 001e 8C91      		ld r24,X
 168 0020 8861      		ori r24,lo8(24)
 169 0022 8C93      		st X,r24
  35:../../lib/nrfspi_usart.c ****     _ON(NRF_SCLK_DDR, NRF_SCLK_PIN);
 170               		.stabn	68,0,35,.LM10-.LFBB2
 171               	.LM10:
 172 0024 549A      		sbi 0xa,4
  36:../../lib/nrfspi_usart.c **** 
  37:../../lib/nrfspi_usart.c ****     UBRR0 = NRF_PRESCALER;
 173               		.stabn	68,0,37,.LM11-.LFBB2
 174               	.LM11:
 175 0026 81E0      		ldi r24,lo8(1)
 176 0028 90E0      		ldi r25,0
 177 002a 9183      		std Z+1,r25
 178 002c 8083      		st Z,r24
 179 002e 0895      		ret
 180               		.size	nrfspi_enable, .-nrfspi_enable
 181               	.Lscope2:
 182               		.stabs	"",36,0,0,.Lscope2-.LFBB2
 183               		.stabd	78,0,0
 184               		.stabs	"nrfspi_disable:F(0,47)",36,0,41,nrfspi_disable
 185               	.global	nrfspi_disable
 186               		.type	nrfspi_disable, @function
 187               	nrfspi_disable:
 188               		.stabd	46,0,0
  38:../../lib/nrfspi_usart.c **** }
  39:../../lib/nrfspi_usart.c **** 
  40:../../lib/nrfspi_usart.c **** 
GAS LISTING /tmp/ccmqQU8W.s 			page 5


  41:../../lib/nrfspi_usart.c **** void nrfspi_disable(void) {
 189               		.stabn	68,0,41,.LM12-.LFBB3
 190               	.LM12:
 191               	.LFBB3:
 192               	/* prologue: function */
 193               	/* frame size = 0 */
 194               	/* stack size = 0 */
 195               	.L__stack_usage = 0
  42:../../lib/nrfspi_usart.c ****     UCSR0B &= ~( _BV(RXEN0) | _BV(TXEN0) );
 196               		.stabn	68,0,42,.LM13-.LFBB3
 197               	.LM13:
 198 0030 E1EC      		ldi r30,lo8(-63)
 199 0032 F0E0      		ldi r31,0
 200 0034 8081      		ld r24,Z
 201 0036 877E      		andi r24,lo8(-25)
 202 0038 8083      		st Z,r24
 203 003a 0895      		ret
 204               		.size	nrfspi_disable, .-nrfspi_disable
 205               	.Lscope3:
 206               		.stabs	"",36,0,0,.Lscope3-.LFBB3
 207               		.stabd	78,0,0
 208               		.stabs	"nrfspi_txrx:F(5,2)",36,0,46,nrfspi_txrx
 209               		.stabs	"len:P(5,2)",64,0,46,24
 210               		.stabs	"rxbuf:P(0,48)=*(5,2)",64,0,46,20
 211               	.global	nrfspi_txrx
 212               		.type	nrfspi_txrx, @function
 213               	nrfspi_txrx:
 214               		.stabd	46,0,0
  43:../../lib/nrfspi_usart.c **** }
  44:../../lib/nrfspi_usart.c **** 
  45:../../lib/nrfspi_usart.c **** 
  46:../../lib/nrfspi_usart.c **** uint8_t nrfspi_txrx(uint8_t len, uint8_t *txbuf, uint8_t *rxbuf) {
 215               		.stabn	68,0,46,.LM14-.LFBB4
 216               	.LM14:
 217               	.LFBB4:
 218               	/* prologue: function */
 219               	/* frame size = 0 */
 220               	/* stack size = 0 */
 221               	.L__stack_usage = 0
  47:../../lib/nrfspi_usart.c ****     // UDR must be read for each byte transmitted
  48:../../lib/nrfspi_usart.c ****     uint8_t count = 0;
  49:../../lib/nrfspi_usart.c ****     uint8_t tmp;
  50:../../lib/nrfspi_usart.c **** 
  51:../../lib/nrfspi_usart.c ****     if (rxbuf) {
 222               		.stabn	68,0,51,.LM15-.LFBB4
 223               	.LM15:
 224 003c 4115      		cp r20,__zero_reg__
 225 003e 5105      		cpc r21,__zero_reg__
 226 0040 01F4      		brne .L5
 227 0042 FB01      		movw r30,r22
 228 0044 982F      		mov r25,r24
 229 0046 00C0      		rjmp .L6
 230               	.L5:
 231 0048 DA01      		movw r26,r20
 232 004a FB01      		movw r30,r22
 233 004c 982F      		mov r25,r24
 234               	.L7:
GAS LISTING /tmp/ccmqQU8W.s 			page 6


  52:../../lib/nrfspi_usart.c ****         // transmit and read
  53:../../lib/nrfspi_usart.c ****         while (len--) {
 235               		.stabn	68,0,53,.LM16-.LFBB4
 236               	.LM16:
 237 004e 9150      		subi r25,1
 238 0050 00F0      		brcs .L20
 239               	.L9:
  54:../../lib/nrfspi_usart.c ****             while ( !(UCSR0A & _BV(UDRE0)) );
 240               		.stabn	68,0,54,.LM17-.LFBB4
 241               	.LM17:
 242 0052 2091 C000 		lds r18,192
 243 0056 25FF      		sbrs r18,5
 244 0058 00C0      		rjmp .L9
  55:../../lib/nrfspi_usart.c ****             UDR0 = *(txbuf++);
 245               		.stabn	68,0,55,.LM18-.LFBB4
 246               	.LM18:
 247 005a 2191      		ld r18,Z+
 248 005c 2093 C600 		sts 198,r18
 249               	.L11:
  56:../../lib/nrfspi_usart.c **** 
  57:../../lib/nrfspi_usart.c ****             while ( !(UCSR0A & _BV(RXC0)) );
 250               		.stabn	68,0,57,.LM19-.LFBB4
 251               	.LM19:
 252 0060 2091 C000 		lds r18,192
 253 0064 27FF      		sbrs r18,7
 254 0066 00C0      		rjmp .L11
  58:../../lib/nrfspi_usart.c ****             *(rxbuf++) = UDR0;
 255               		.stabn	68,0,58,.LM20-.LFBB4
 256               	.LM20:
 257 0068 2091 C600 		lds r18,198
 258 006c 2D93      		st X+,r18
 259 006e 00C0      		rjmp .L7
 260               	.L20:
 261 0070 0895      		ret
 262               	.L15:
  59:../../lib/nrfspi_usart.c **** 
  60:../../lib/nrfspi_usart.c ****             count++;
  61:../../lib/nrfspi_usart.c ****         }
  62:../../lib/nrfspi_usart.c ****     } else {
  63:../../lib/nrfspi_usart.c ****         // just transmit
  64:../../lib/nrfspi_usart.c ****         while (len--) {
  65:../../lib/nrfspi_usart.c ****             while ( !(UCSR0A & _BV(UDRE0)) );
 263               		.stabn	68,0,65,.LM21-.LFBB4
 264               	.LM21:
 265 0072 2091 C000 		lds r18,192
 266 0076 25FF      		sbrs r18,5
 267 0078 00C0      		rjmp .L15
  66:../../lib/nrfspi_usart.c **** 
  67:../../lib/nrfspi_usart.c ****             UDR0 = *(txbuf++);
 268               		.stabn	68,0,67,.LM22-.LFBB4
 269               	.LM22:
 270 007a 2191      		ld r18,Z+
 271 007c 2093 C600 		sts 198,r18
 272               	.L17:
  68:../../lib/nrfspi_usart.c **** 
  69:../../lib/nrfspi_usart.c ****             while ( !(UCSR0A & _BV(RXC0)) );
 273               		.stabn	68,0,69,.LM23-.LFBB4
GAS LISTING /tmp/ccmqQU8W.s 			page 7


 274               	.LM23:
 275 0080 2091 C000 		lds r18,192
 276 0084 27FF      		sbrs r18,7
 277 0086 00C0      		rjmp .L17
  70:../../lib/nrfspi_usart.c ****             tmp = UDR0;
 278               		.stabn	68,0,70,.LM24-.LFBB4
 279               	.LM24:
 280 0088 2091 C600 		lds r18,198
 281               	.L6:
  64:../../lib/nrfspi_usart.c ****         while (len--) {
 282               		.stabn	68,0,64,.LM25-.LFBB4
 283               	.LM25:
 284 008c 9150      		subi r25,1
 285 008e 00F4      		brcc .L15
  71:../../lib/nrfspi_usart.c **** 
  72:../../lib/nrfspi_usart.c ****             count++;
  73:../../lib/nrfspi_usart.c ****         }
  74:../../lib/nrfspi_usart.c ****         tmp = tmp;
  75:../../lib/nrfspi_usart.c ****     }
  76:../../lib/nrfspi_usart.c **** 
  77:../../lib/nrfspi_usart.c ****     return count;
  78:../../lib/nrfspi_usart.c **** }
 286               		.stabn	68,0,78,.LM26-.LFBB4
 287               	.LM26:
 288 0090 0895      		ret
 289               		.size	nrfspi_txrx, .-nrfspi_txrx
 290               		.stabs	"tmp:r(5,2)",64,0,49,18
 291               		.stabn	192,0,0,.LFBB4-.LFBB4
 292               		.stabn	224,0,0,.Lscope4-.LFBB4
 293               	.Lscope4:
 294               		.stabs	"",36,0,0,.Lscope4-.LFBB4
 295               		.stabd	78,0,0
 296               		.stabs	"nrfspi_txrx_byte:F(5,2)",36,0,81,nrfspi_txrx_byte
 297               		.stabs	"data:P(5,2)",64,0,81,24
 298               	.global	nrfspi_txrx_byte
 299               		.type	nrfspi_txrx_byte, @function
 300               	nrfspi_txrx_byte:
 301               		.stabd	46,0,0
  79:../../lib/nrfspi_usart.c **** 
  80:../../lib/nrfspi_usart.c **** 
  81:../../lib/nrfspi_usart.c **** uint8_t nrfspi_txrx_byte(uint8_t data) {
 302               		.stabn	68,0,81,.LM27-.LFBB5
 303               	.LM27:
 304               	.LFBB5:
 305               	/* prologue: function */
 306               	/* frame size = 0 */
 307               	/* stack size = 0 */
 308               	.L__stack_usage = 0
 309               	.L23:
  82:../../lib/nrfspi_usart.c ****     uint8_t ret;
  83:../../lib/nrfspi_usart.c **** 
  84:../../lib/nrfspi_usart.c ****     while ( !(UCSR0A & _BV(UDRE0)) );
 310               		.stabn	68,0,84,.LM28-.LFBB5
 311               	.LM28:
 312 0092 9091 C000 		lds r25,192
 313 0096 95FF      		sbrs r25,5
 314 0098 00C0      		rjmp .L23
GAS LISTING /tmp/ccmqQU8W.s 			page 8


  85:../../lib/nrfspi_usart.c ****     UDR0 = data;
 315               		.stabn	68,0,85,.LM29-.LFBB5
 316               	.LM29:
 317 009a 8093 C600 		sts 198,r24
 318               	.L25:
  86:../../lib/nrfspi_usart.c **** 
  87:../../lib/nrfspi_usart.c ****     while ( !(UCSR0A & _BV(RXC0)) );
 319               		.stabn	68,0,87,.LM30-.LFBB5
 320               	.LM30:
 321 009e 8091 C000 		lds r24,192
 322 00a2 87FF      		sbrs r24,7
 323 00a4 00C0      		rjmp .L25
  88:../../lib/nrfspi_usart.c ****     ret = UDR0;
 324               		.stabn	68,0,88,.LM31-.LFBB5
 325               	.LM31:
 326 00a6 8091 C600 		lds r24,198
  89:../../lib/nrfspi_usart.c **** 
  90:../../lib/nrfspi_usart.c ****     return ret;
  91:../../lib/nrfspi_usart.c **** }
 327               		.stabn	68,0,91,.LM32-.LFBB5
 328               	.LM32:
 329 00aa 0895      		ret
 330               		.size	nrfspi_txrx_byte, .-nrfspi_txrx_byte
 331               		.stabs	"ret:r(5,2)",64,0,82,24
 332               		.stabn	192,0,0,.LFBB5-.LFBB5
 333               		.stabn	224,0,0,.Lscope5-.LFBB5
 334               	.Lscope5:
 335               		.stabs	"",36,0,0,.Lscope5-.LFBB5
 336               		.stabd	78,0,0
 337               		.stabs	"nrfspi_cs_en:F(0,47)",36,0,94,nrfspi_cs_en
 338               	.global	nrfspi_cs_en
 339               		.type	nrfspi_cs_en, @function
 340               	nrfspi_cs_en:
 341               		.stabd	46,0,0
  92:../../lib/nrfspi_usart.c **** 
  93:../../lib/nrfspi_usart.c **** 
  94:../../lib/nrfspi_usart.c **** __inline void nrfspi_cs_en(void) {
 342               		.stabn	68,0,94,.LM33-.LFBB6
 343               	.LM33:
 344               	.LFBB6:
 345               	/* prologue: function */
 346               	/* frame size = 0 */
 347               	/* stack size = 0 */
 348               	.L__stack_usage = 0
  95:../../lib/nrfspi_usart.c ****     _OFF(NRF_CSN_PRT, NRF_CSN_PIN);
 349               		.stabn	68,0,95,.LM34-.LFBB6
 350               	.LM34:
 351 00ac 4498      		cbi 0x8,4
 352 00ae 0895      		ret
 353               		.size	nrfspi_cs_en, .-nrfspi_cs_en
 354               	.Lscope6:
 355               		.stabs	"",36,0,0,.Lscope6-.LFBB6
 356               		.stabd	78,0,0
 357               		.stabs	"nrfspi_cs_ds:F(0,47)",36,0,98,nrfspi_cs_ds
 358               	.global	nrfspi_cs_ds
 359               		.type	nrfspi_cs_ds, @function
 360               	nrfspi_cs_ds:
GAS LISTING /tmp/ccmqQU8W.s 			page 9


 361               		.stabd	46,0,0
  96:../../lib/nrfspi_usart.c **** }
  97:../../lib/nrfspi_usart.c **** 
  98:../../lib/nrfspi_usart.c **** __inline void nrfspi_cs_ds(void) {
 362               		.stabn	68,0,98,.LM35-.LFBB7
 363               	.LM35:
 364               	.LFBB7:
 365               	/* prologue: function */
 366               	/* frame size = 0 */
 367               	/* stack size = 0 */
 368               	.L__stack_usage = 0
  99:../../lib/nrfspi_usart.c ****     _ON(NRF_CSN_PRT, NRF_CSN_PIN);
 369               		.stabn	68,0,99,.LM36-.LFBB7
 370               	.LM36:
 371 00b0 449A      		sbi 0x8,4
 372 00b2 0895      		ret
 373               		.size	nrfspi_cs_ds, .-nrfspi_cs_ds
 374               	.Lscope7:
 375               		.stabs	"",36,0,0,.Lscope7-.LFBB7
 376               		.stabd	78,0,0
 377               		.stabs	"",100,0,0,.Letext0
 378               	.Letext0:
 379               		.ident	"GCC: (GNU) 4.8.2"
GAS LISTING /tmp/ccmqQU8W.s 			page 10


DEFINED SYMBOLS
                            *ABS*:0000000000000000 nrfspi_usart.c
     /tmp/ccmqQU8W.s:2      *ABS*:000000000000003e __SP_H__
     /tmp/ccmqQU8W.s:3      *ABS*:000000000000003d __SP_L__
     /tmp/ccmqQU8W.s:4      *ABS*:000000000000003f __SREG__
     /tmp/ccmqQU8W.s:5      *ABS*:0000000000000000 __tmp_reg__
     /tmp/ccmqQU8W.s:6      *ABS*:0000000000000001 __zero_reg__
     /tmp/ccmqQU8W.s:112    .text:0000000000000000 nrfspi_init
     /tmp/ccmqQU8W.s:148    .text:0000000000000012 nrfspi_enable
     /tmp/ccmqQU8W.s:187    .text:0000000000000030 nrfspi_disable
     /tmp/ccmqQU8W.s:213    .text:000000000000003c nrfspi_txrx
     /tmp/ccmqQU8W.s:300    .text:0000000000000092 nrfspi_txrx_byte
     /tmp/ccmqQU8W.s:340    .text:00000000000000ac nrfspi_cs_en
     /tmp/ccmqQU8W.s:360    .text:00000000000000b0 nrfspi_cs_ds

NO UNDEFINED SYMBOLS
