GAS LISTING /tmp/cc9Wa3WO.s 			page 1


   1               		.file	"uart.c"
   2               	__SP_H__ = 0x3e
   3               	__SP_L__ = 0x3d
   4               	__SREG__ = 0x3f
   5               	__tmp_reg__ = 0
   6               	__zero_reg__ = 1
   7               		.stabs	"/home/j/projects/hkir/fw/prj/hkir/",100,0,2,.Ltext0
   8               		.stabs	"../../lib/uart.c",100,0,2,.Ltext0
   9               		.text
  10               	.Ltext0:
  11               		.stabs	"gcc2_compiled.",60,0,0,0
  12               		.stabs	"int:t(0,1)=r(0,1);-32768;32767;",128,0,0,0
  13               		.stabs	"char:t(0,2)=@s8;r(0,2);0;255;",128,0,0,0
  14               		.stabs	"long int:t(0,3)=@s32;r(0,3);020000000000;017777777777;",128,0,0,0
  15               		.stabs	"unsigned int:t(0,4)=r(0,4);0;0177777;",128,0,0,0
  16               		.stabs	"long unsigned int:t(0,5)=@s32;r(0,5);0;037777777777;",128,0,0,0
  17               		.stabs	"long long int:t(0,6)=@s64;r(0,6);01000000000000000000000;0777777777777777777777;",128,0,0,
  18               		.stabs	"long long unsigned int:t(0,7)=@s64;r(0,7);0;01777777777777777777777;",128,0,0,0
  19               		.stabs	"short int:t(0,8)=r(0,8);-32768;32767;",128,0,0,0
  20               		.stabs	"short unsigned int:t(0,9)=r(0,9);0;0177777;",128,0,0,0
  21               		.stabs	"signed char:t(0,10)=@s8;r(0,10);-128;127;",128,0,0,0
  22               		.stabs	"unsigned char:t(0,11)=@s8;r(0,11);0;255;",128,0,0,0
  23               		.stabs	"float:t(0,12)=r(0,1);4;0;",128,0,0,0
  24               		.stabs	"double:t(0,13)=r(0,1);4;0;",128,0,0,0
  25               		.stabs	"long double:t(0,14)=r(0,1);4;0;",128,0,0,0
  26               		.stabs	"short _Fract:t(0,15)=r(0,1);1;0;",128,0,0,0
  27               		.stabs	"_Fract:t(0,16)=r(0,1);2;0;",128,0,0,0
  28               		.stabs	"long _Fract:t(0,17)=r(0,1);4;0;",128,0,0,0
  29               		.stabs	"long long _Fract:t(0,18)=r(0,1);8;0;",128,0,0,0
  30               		.stabs	"unsigned short _Fract:t(0,19)=r(0,1);1;0;",128,0,0,0
  31               		.stabs	"unsigned _Fract:t(0,20)=r(0,1);2;0;",128,0,0,0
  32               		.stabs	"unsigned long _Fract:t(0,21)=r(0,1);4;0;",128,0,0,0
  33               		.stabs	"unsigned long long _Fract:t(0,22)=r(0,1);8;0;",128,0,0,0
  34               		.stabs	"_Sat short _Fract:t(0,23)=r(0,1);1;0;",128,0,0,0
  35               		.stabs	"_Sat _Fract:t(0,24)=r(0,1);2;0;",128,0,0,0
  36               		.stabs	"_Sat long _Fract:t(0,25)=r(0,1);4;0;",128,0,0,0
  37               		.stabs	"_Sat long long _Fract:t(0,26)=r(0,1);8;0;",128,0,0,0
  38               		.stabs	"_Sat unsigned short _Fract:t(0,27)=r(0,1);1;0;",128,0,0,0
  39               		.stabs	"_Sat unsigned _Fract:t(0,28)=r(0,1);2;0;",128,0,0,0
  40               		.stabs	"_Sat unsigned long _Fract:t(0,29)=r(0,1);4;0;",128,0,0,0
  41               		.stabs	"_Sat unsigned long long _Fract:t(0,30)=r(0,1);8;0;",128,0,0,0
  42               		.stabs	"short _Accum:t(0,31)=r(0,1);2;0;",128,0,0,0
  43               		.stabs	"_Accum:t(0,32)=r(0,1);4;0;",128,0,0,0
  44               		.stabs	"long _Accum:t(0,33)=r(0,1);8;0;",128,0,0,0
  45               		.stabs	"long long _Accum:t(0,34)=r(0,1);8;0;",128,0,0,0
  46               		.stabs	"unsigned short _Accum:t(0,35)=r(0,1);2;0;",128,0,0,0
  47               		.stabs	"unsigned _Accum:t(0,36)=r(0,1);4;0;",128,0,0,0
  48               		.stabs	"unsigned long _Accum:t(0,37)=r(0,1);8;0;",128,0,0,0
  49               		.stabs	"unsigned long long _Accum:t(0,38)=r(0,1);8;0;",128,0,0,0
  50               		.stabs	"_Sat short _Accum:t(0,39)=r(0,1);2;0;",128,0,0,0
  51               		.stabs	"_Sat _Accum:t(0,40)=r(0,1);4;0;",128,0,0,0
  52               		.stabs	"_Sat long _Accum:t(0,41)=r(0,1);8;0;",128,0,0,0
  53               		.stabs	"_Sat long long _Accum:t(0,42)=r(0,1);8;0;",128,0,0,0
  54               		.stabs	"_Sat unsigned short _Accum:t(0,43)=r(0,1);2;0;",128,0,0,0
  55               		.stabs	"_Sat unsigned _Accum:t(0,44)=r(0,1);4;0;",128,0,0,0
  56               		.stabs	"_Sat unsigned long _Accum:t(0,45)=r(0,1);8;0;",128,0,0,0
  57               		.stabs	"_Sat unsigned long long _Accum:t(0,46)=r(0,1);8;0;",128,0,0,0
GAS LISTING /tmp/cc9Wa3WO.s 			page 2


  58               		.stabs	"void:t(0,47)=(0,47)",128,0,0,0
  59               		.stabs	"./config.h",130,0,0,0
  60               		.stabs	"../../inc/config_top.h",130,0,0,0
  61               		.stabs	"/usr/avr/include/inttypes.h",130,0,0,0
  62               		.stabs	"/usr/lib/gcc/avr/4.8.2/include/stdint.h",130,0,0,0
  63               		.stabs	"/usr/avr/include/stdint.h",130,0,0,0
  64               		.stabs	"int8_t:t(5,1)=(0,10)",128,0,121,0
  65               		.stabs	"uint8_t:t(5,2)=(0,11)",128,0,122,0
  66               		.stabs	"int16_t:t(5,3)=(0,1)",128,0,123,0
  67               		.stabs	"uint16_t:t(5,4)=(0,4)",128,0,124,0
  68               		.stabs	"int32_t:t(5,5)=(0,3)",128,0,125,0
  69               		.stabs	"uint32_t:t(5,6)=(0,5)",128,0,126,0
  70               		.stabs	"int64_t:t(5,7)=(0,6)",128,0,128,0
  71               		.stabs	"uint64_t:t(5,8)=(0,7)",128,0,129,0
  72               		.stabs	"intptr_t:t(5,9)=(5,3)",128,0,142,0
  73               		.stabs	"uintptr_t:t(5,10)=(5,4)",128,0,147,0
  74               		.stabs	"int_least8_t:t(5,11)=(5,1)",128,0,159,0
  75               		.stabs	"uint_least8_t:t(5,12)=(5,2)",128,0,164,0
  76               		.stabs	"int_least16_t:t(5,13)=(5,3)",128,0,169,0
  77               		.stabs	"uint_least16_t:t(5,14)=(5,4)",128,0,174,0
  78               		.stabs	"int_least32_t:t(5,15)=(5,5)",128,0,179,0
  79               		.stabs	"uint_least32_t:t(5,16)=(5,6)",128,0,184,0
  80               		.stabs	"int_least64_t:t(5,17)=(5,7)",128,0,192,0
  81               		.stabs	"uint_least64_t:t(5,18)=(5,8)",128,0,199,0
  82               		.stabs	"int_fast8_t:t(5,19)=(5,1)",128,0,213,0
  83               		.stabs	"uint_fast8_t:t(5,20)=(5,2)",128,0,218,0
  84               		.stabs	"int_fast16_t:t(5,21)=(5,3)",128,0,223,0
  85               		.stabs	"uint_fast16_t:t(5,22)=(5,4)",128,0,228,0
  86               		.stabs	"int_fast32_t:t(5,23)=(5,5)",128,0,233,0
  87               		.stabs	"uint_fast32_t:t(5,24)=(5,6)",128,0,238,0
  88               		.stabs	"int_fast64_t:t(5,25)=(5,7)",128,0,246,0
  89               		.stabs	"uint_fast64_t:t(5,26)=(5,8)",128,0,253,0
  90               		.stabs	"intmax_t:t(5,27)=(5,7)",128,0,273,0
  91               		.stabs	"uintmax_t:t(5,28)=(5,8)",128,0,278,0
  92               		.stabn	162,0,0,0
  93               		.stabn	162,0,0,0
  94               		.stabs	"int_farptr_t:t(3,1)=(5,5)",128,0,77,0
  95               		.stabs	"uint_farptr_t:t(3,2)=(5,6)",128,0,81,0
  96               		.stabn	162,0,0,0
  97               		.stabs	"/usr/avr/include/avr/io.h",130,0,0,0
  98               		.stabs	"/usr/avr/include/avr/fuse.h",130,0,0,0
  99               		.stabs	"__fuse_t:t(7,1)=(7,2)=s3low:(0,11),0,8;high:(0,11),8,8;extended:(0,11),16,8;;",128,0,244,0
 100               		.stabn	162,0,0,0
 101               		.stabn	162,0,0,0
 102               		.stabs	"/usr/avr/include/avr/pgmspace.h",130,0,0,0
 103               		.stabs	"/usr/lib/gcc/avr/4.8.2/include/stddef.h",130,0,0,0
 104               		.stabs	"size_t:t(9,1)=(0,4)",128,0,212,0
 105               		.stabn	162,0,0,0
 106               		.stabn	162,0,0,0
 107               		.stabn	162,0,0,0
 108               		.stabn	162,0,0,0
 109               		.stabs	"uart_init:F(0,47)",36,0,14,uart_init
 110               		.stabs	"txh:P(0,48)=*(0,49)=f(0,47)",64,0,14,24
 111               		.stabs	"rxh:P(0,50)=*(0,51)=f(0,47)",64,0,14,22
 112               	.global	uart_init
 113               		.type	uart_init, @function
 114               	uart_init:
GAS LISTING /tmp/cc9Wa3WO.s 			page 3


 115               		.stabd	46,0,0
   1:../../lib/uart.c **** /*
   2:../../lib/uart.c ****  * super simple interface for setting up interrupt-based UART interactions
   3:../../lib/uart.c ****  * jwc :: jwcxz.com
   4:../../lib/uart.c ****  */
   5:../../lib/uart.c **** 
   6:../../lib/uart.c **** #include "config.h"
   7:../../lib/uart.c **** #include "uart.h"
   8:../../lib/uart.c **** 
   9:../../lib/uart.c **** 
  10:../../lib/uart.c **** void (*tx_handler)(void) = 0;
  11:../../lib/uart.c **** void (*rx_handler)(uint8_t) = 0;
  12:../../lib/uart.c **** 
  13:../../lib/uart.c **** 
  14:../../lib/uart.c **** void uart_init(void (*txh)(void), void (*rxh)(uint8_t)) {
 116               		.stabn	68,0,14,.LM0-.LFBB1
 117               	.LM0:
 118               	.LFBB1:
 119               	/* prologue: function */
 120               	/* frame size = 0 */
 121               	/* stack size = 0 */
 122               	.L__stack_usage = 0
  15:../../lib/uart.c **** 	UBRR0 = UART_PRESCALER;
 123               		.stabn	68,0,15,.LM1-.LFBB1
 124               	.LM1:
 125 0000 23E0      		ldi r18,lo8(3)
 126 0002 31E0      		ldi r19,lo8(1)
 127 0004 3093 C500 		sts 196+1,r19
 128 0008 2093 C400 		sts 196,r18
  16:../../lib/uart.c **** 
  17:../../lib/uart.c ****     UCSR0A = ( UART_DBL << U2X0 );
 129               		.stabn	68,0,17,.LM2-.LFBB1
 130               	.LM2:
 131 000c 22E0      		ldi r18,lo8(2)
 132 000e 2093 C000 		sts 192,r18
  18:../../lib/uart.c **** 	UCSR0C = ( _BV(UCSZ01) | _BV(UCSZ00) );
 133               		.stabn	68,0,18,.LM3-.LFBB1
 134               	.LM3:
 135 0012 26E0      		ldi r18,lo8(6)
 136 0014 2093 C200 		sts 194,r18
  19:../../lib/uart.c **** 
  20:../../lib/uart.c ****     UCSR0C |= UART_PARITY;
 137               		.stabn	68,0,20,.LM4-.LFBB1
 138               	.LM4:
 139 0018 2091 C200 		lds r18,194
 140 001c 2093 C200 		sts 194,r18
  21:../../lib/uart.c **** 
  22:../../lib/uart.c ****     UCSR0B = 0;
 141               		.stabn	68,0,22,.LM5-.LFBB1
 142               	.LM5:
 143 0020 1092 C100 		sts 193,__zero_reg__
  23:../../lib/uart.c **** 
  24:../../lib/uart.c ****     tx_handler = txh;
 144               		.stabn	68,0,24,.LM6-.LFBB1
 145               	.LM6:
 146 0024 9093 0000 		sts tx_handler+1,r25
 147 0028 8093 0000 		sts tx_handler,r24
GAS LISTING /tmp/cc9Wa3WO.s 			page 4


  25:../../lib/uart.c ****     rx_handler = rxh;
 148               		.stabn	68,0,25,.LM7-.LFBB1
 149               	.LM7:
 150 002c 7093 0000 		sts rx_handler+1,r23
 151 0030 6093 0000 		sts rx_handler,r22
  26:../../lib/uart.c **** 
  27:../../lib/uart.c ****     if (tx_handler) {
 152               		.stabn	68,0,27,.LM8-.LFBB1
 153               	.LM8:
 154 0034 892B      		or r24,r25
 155 0036 01F0      		breq .L1
  28:../../lib/uart.c ****         UART_TX_DDR |= 1<<UART_TX_PIN;
 156               		.stabn	68,0,28,.LM9-.LFBB1
 157               	.LM9:
 158 0038 519A      		sbi 0xa,1
 159               	.L1:
 160 003a 0895      		ret
 161               		.size	uart_init, .-uart_init
 162               	.Lscope1:
 163               		.stabs	"",36,0,0,.Lscope1-.LFBB1
 164               		.stabd	78,0,0
 165               		.stabs	"uart_enable:F(0,47)",36,0,33,uart_enable
 166               	.global	uart_enable
 167               		.type	uart_enable, @function
 168               	uart_enable:
 169               		.stabd	46,0,0
  29:../../lib/uart.c ****     }
  30:../../lib/uart.c **** }
  31:../../lib/uart.c **** 
  32:../../lib/uart.c **** 
  33:../../lib/uart.c **** void uart_enable(void) {
 170               		.stabn	68,0,33,.LM10-.LFBB2
 171               	.LM10:
 172               	.LFBB2:
 173               	/* prologue: function */
 174               	/* frame size = 0 */
 175               	/* stack size = 0 */
 176               	.L__stack_usage = 0
  34:../../lib/uart.c ****     if (tx_handler) {
 177               		.stabn	68,0,34,.LM11-.LFBB2
 178               	.LM11:
 179 003c 8091 0000 		lds r24,tx_handler
 180 0040 9091 0000 		lds r25,tx_handler+1
 181 0044 892B      		or r24,r25
 182 0046 01F0      		breq .L8
  35:../../lib/uart.c ****         UCSR0B |= ( _BV(UDRIE0) | _BV(TXEN0) );
 183               		.stabn	68,0,35,.LM12-.LFBB2
 184               	.LM12:
 185 0048 8091 C100 		lds r24,193
 186 004c 8862      		ori r24,lo8(40)
 187 004e 8093 C100 		sts 193,r24
 188               	.L8:
  36:../../lib/uart.c ****     }
  37:../../lib/uart.c **** 
  38:../../lib/uart.c ****     if (rx_handler) {
 189               		.stabn	68,0,38,.LM13-.LFBB2
 190               	.LM13:
GAS LISTING /tmp/cc9Wa3WO.s 			page 5


 191 0052 8091 0000 		lds r24,rx_handler
 192 0056 9091 0000 		lds r25,rx_handler+1
 193 005a 892B      		or r24,r25
 194 005c 01F0      		breq .L7
  39:../../lib/uart.c ****         UCSR0B |= ( _BV(RXCIE0) | _BV(RXEN0) );
 195               		.stabn	68,0,39,.LM14-.LFBB2
 196               	.LM14:
 197 005e 8091 C100 		lds r24,193
 198 0062 8069      		ori r24,lo8(-112)
 199 0064 8093 C100 		sts 193,r24
 200               	.L7:
 201 0068 0895      		ret
 202               		.size	uart_enable, .-uart_enable
 203               	.Lscope2:
 204               		.stabs	"",36,0,0,.Lscope2-.LFBB2
 205               		.stabd	78,0,0
 206               		.stabs	"uart_disable:F(0,47)",36,0,44,uart_disable
 207               	.global	uart_disable
 208               		.type	uart_disable, @function
 209               	uart_disable:
 210               		.stabd	46,0,0
  40:../../lib/uart.c ****     }
  41:../../lib/uart.c **** }
  42:../../lib/uart.c **** 
  43:../../lib/uart.c **** 
  44:../../lib/uart.c **** void uart_disable(void) {
 211               		.stabn	68,0,44,.LM15-.LFBB3
 212               	.LM15:
 213               	.LFBB3:
 214               	/* prologue: function */
 215               	/* frame size = 0 */
 216               	/* stack size = 0 */
 217               	.L__stack_usage = 0
  45:../../lib/uart.c ****     UCSR0B &= ~( _BV(UDRIE0) | _BV(TXEN0) | _BV(RXCIE0) | _BV(RXEN0) );
 218               		.stabn	68,0,45,.LM16-.LFBB3
 219               	.LM16:
 220 006a E1EC      		ldi r30,lo8(-63)
 221 006c F0E0      		ldi r31,0
 222 006e 8081      		ld r24,Z
 223 0070 8774      		andi r24,lo8(71)
 224 0072 8083      		st Z,r24
 225 0074 0895      		ret
 226               		.size	uart_disable, .-uart_disable
 227               	.Lscope3:
 228               		.stabs	"",36,0,0,.Lscope3-.LFBB3
 229               		.stabd	78,0,0
 230               		.stabs	"__vector_18:F(0,47)",36,0,49,__vector_18
 231               	.global	__vector_18
 232               		.type	__vector_18, @function
 233               	__vector_18:
 234               		.stabd	46,0,0
  46:../../lib/uart.c **** }
  47:../../lib/uart.c **** 
  48:../../lib/uart.c **** 
  49:../../lib/uart.c **** ISR(USART_RX_vect) {
 235               		.stabn	68,0,49,.LM17-.LFBB4
 236               	.LM17:
GAS LISTING /tmp/cc9Wa3WO.s 			page 6


 237               	.LFBB4:
 238 0076 1F92      		push r1
 239 0078 0F92      		push r0
 240 007a 0FB6      		in r0,__SREG__
 241 007c 0F92      		push r0
 242 007e 1124      		clr __zero_reg__
 243 0080 2F93      		push r18
 244 0082 3F93      		push r19
 245 0084 4F93      		push r20
 246 0086 5F93      		push r21
 247 0088 6F93      		push r22
 248 008a 7F93      		push r23
 249 008c 8F93      		push r24
 250 008e 9F93      		push r25
 251 0090 AF93      		push r26
 252 0092 BF93      		push r27
 253 0094 EF93      		push r30
 254 0096 FF93      		push r31
 255               	/* prologue: Signal */
 256               	/* frame size = 0 */
 257               	/* stack size = 15 */
 258               	.L__stack_usage = 15
  50:../../lib/uart.c **** 	uint8_t byte;
  51:../../lib/uart.c **** 
  52:../../lib/uart.c ****     // check for framing errors, overrun errors, and parity errors
  53:../../lib/uart.c ****     // reset the uart if necessary
  54:../../lib/uart.c ****     if ( UCSR0A & (_BV(FE0) | _BV(DOR0) | _BV(UPE0)) ) {
 259               		.stabn	68,0,54,.LM18-.LFBB4
 260               	.LM18:
 261 0098 8091 C000 		lds r24,192
 262 009c 8C71      		andi r24,lo8(28)
 263 009e 01F0      		breq .L18
  55:../../lib/uart.c ****         UCSR0B &= ~(_BV(RXCIE0) | _BV(RXEN0));
 264               		.stabn	68,0,55,.LM19-.LFBB4
 265               	.LM19:
 266 00a0 8091 C100 		lds r24,193
 267 00a4 8F76      		andi r24,lo8(111)
 268 00a6 8093 C100 		sts 193,r24
  56:../../lib/uart.c ****         UCSR0B |=  (_BV(RXCIE0) | _BV(RXEN0));
 269               		.stabn	68,0,56,.LM20-.LFBB4
 270               	.LM20:
 271 00aa 8091 C100 		lds r24,193
 272 00ae 8069      		ori r24,lo8(-112)
 273 00b0 8093 C100 		sts 193,r24
 274 00b4 00C0      		rjmp .L17
 275               	.L18:
  57:../../lib/uart.c ****     } else {
  58:../../lib/uart.c ****         byte = UDR0;
 276               		.stabn	68,0,58,.LM21-.LFBB4
 277               	.LM21:
 278 00b6 8091 C600 		lds r24,198
  59:../../lib/uart.c ****         rx_handler(byte);
 279               		.stabn	68,0,59,.LM22-.LFBB4
 280               	.LM22:
 281 00ba E091 0000 		lds r30,rx_handler
 282 00be F091 0000 		lds r31,rx_handler+1
 283 00c2 0995      		icall
GAS LISTING /tmp/cc9Wa3WO.s 			page 7


 284               	.L17:
 285               	/* epilogue start */
  60:../../lib/uart.c ****     }
  61:../../lib/uart.c **** }
 286               		.stabn	68,0,61,.LM23-.LFBB4
 287               	.LM23:
 288 00c4 FF91      		pop r31
 289 00c6 EF91      		pop r30
 290 00c8 BF91      		pop r27
 291 00ca AF91      		pop r26
 292 00cc 9F91      		pop r25
 293 00ce 8F91      		pop r24
 294 00d0 7F91      		pop r23
 295 00d2 6F91      		pop r22
 296 00d4 5F91      		pop r21
 297 00d6 4F91      		pop r20
 298 00d8 3F91      		pop r19
 299 00da 2F91      		pop r18
 300 00dc 0F90      		pop r0
 301 00de 0FBE      		out __SREG__,r0
 302 00e0 0F90      		pop r0
 303 00e2 1F90      		pop r1
 304 00e4 1895      		reti
 305               		.size	__vector_18, .-__vector_18
 306               		.stabs	"byte:r(5,2)",64,0,50,24
 307               		.stabn	192,0,0,.LFBB4-.LFBB4
 308               		.stabn	224,0,0,.Lscope4-.LFBB4
 309               	.Lscope4:
 310               		.stabs	"",36,0,0,.Lscope4-.LFBB4
 311               		.stabd	78,0,0
 312               		.stabs	"__vector_19:F(0,47)",36,0,63,__vector_19
 313               	.global	__vector_19
 314               		.type	__vector_19, @function
 315               	__vector_19:
 316               		.stabd	46,0,0
  62:../../lib/uart.c **** 
  63:../../lib/uart.c **** ISR(USART_UDRE_vect) {
 317               		.stabn	68,0,63,.LM24-.LFBB5
 318               	.LM24:
 319               	.LFBB5:
 320 00e6 1F92      		push r1
 321 00e8 0F92      		push r0
 322 00ea 0FB6      		in r0,__SREG__
 323 00ec 0F92      		push r0
 324 00ee 1124      		clr __zero_reg__
 325 00f0 2F93      		push r18
 326 00f2 3F93      		push r19
 327 00f4 4F93      		push r20
 328 00f6 5F93      		push r21
 329 00f8 6F93      		push r22
 330 00fa 7F93      		push r23
 331 00fc 8F93      		push r24
 332 00fe 9F93      		push r25
 333 0100 AF93      		push r26
 334 0102 BF93      		push r27
 335 0104 EF93      		push r30
 336 0106 FF93      		push r31
GAS LISTING /tmp/cc9Wa3WO.s 			page 8


 337               	/* prologue: Signal */
 338               	/* frame size = 0 */
 339               	/* stack size = 15 */
 340               	.L__stack_usage = 15
  64:../../lib/uart.c ****     tx_handler();
 341               		.stabn	68,0,64,.LM25-.LFBB5
 342               	.LM25:
 343 0108 E091 0000 		lds r30,tx_handler
 344 010c F091 0000 		lds r31,tx_handler+1
 345 0110 0995      		icall
 346               	/* epilogue start */
  65:../../lib/uart.c **** }
 347               		.stabn	68,0,65,.LM26-.LFBB5
 348               	.LM26:
 349 0112 FF91      		pop r31
 350 0114 EF91      		pop r30
 351 0116 BF91      		pop r27
 352 0118 AF91      		pop r26
 353 011a 9F91      		pop r25
 354 011c 8F91      		pop r24
 355 011e 7F91      		pop r23
 356 0120 6F91      		pop r22
 357 0122 5F91      		pop r21
 358 0124 4F91      		pop r20
 359 0126 3F91      		pop r19
 360 0128 2F91      		pop r18
 361 012a 0F90      		pop r0
 362 012c 0FBE      		out __SREG__,r0
 363 012e 0F90      		pop r0
 364 0130 1F90      		pop r1
 365 0132 1895      		reti
 366               		.size	__vector_19, .-__vector_19
 367               	.Lscope5:
 368               		.stabs	"",36,0,0,.Lscope5-.LFBB5
 369               		.stabd	78,0,0
 370               	.global	rx_handler
 371               		.section .bss
 372               		.type	rx_handler, @object
 373               		.size	rx_handler, 2
 374               	rx_handler:
 375 0000 0000      		.zero	2
 376               	.global	tx_handler
 377               		.type	tx_handler, @object
 378               		.size	tx_handler, 2
 379               	tx_handler:
 380 0002 0000      		.zero	2
 381               		.stabs	"tx_handler:G(0,48)",32,0,10,0
 382               		.stabs	"rx_handler:G(0,50)",32,0,11,0
 383               		.text
 384               		.stabs	"",100,0,0,.Letext0
 385               	.Letext0:
 386               		.ident	"GCC: (GNU) 4.8.2"
 387               	.global __do_clear_bss
GAS LISTING /tmp/cc9Wa3WO.s 			page 9


DEFINED SYMBOLS
                            *ABS*:0000000000000000 uart.c
     /tmp/cc9Wa3WO.s:2      *ABS*:000000000000003e __SP_H__
     /tmp/cc9Wa3WO.s:3      *ABS*:000000000000003d __SP_L__
     /tmp/cc9Wa3WO.s:4      *ABS*:000000000000003f __SREG__
     /tmp/cc9Wa3WO.s:5      *ABS*:0000000000000000 __tmp_reg__
     /tmp/cc9Wa3WO.s:6      *ABS*:0000000000000001 __zero_reg__
     /tmp/cc9Wa3WO.s:114    .text:0000000000000000 uart_init
     /tmp/cc9Wa3WO.s:379    .bss:0000000000000002 tx_handler
     /tmp/cc9Wa3WO.s:374    .bss:0000000000000000 rx_handler
     /tmp/cc9Wa3WO.s:168    .text:000000000000003c uart_enable
     /tmp/cc9Wa3WO.s:209    .text:000000000000006a uart_disable
     /tmp/cc9Wa3WO.s:233    .text:0000000000000076 __vector_18
     /tmp/cc9Wa3WO.s:315    .text:00000000000000e6 __vector_19

UNDEFINED SYMBOLS
__do_clear_bss
